; Function Attrs: mustprogress uwtable
define noundef i32 @_ZNK13IlmThread_3_210ThreadPool10numThreadsEv(ptr nocapture noundef nonnull readonly align 8 dereferenceable(16) %this) local_unnamed_addr #0 align 2 personality ptr @__gxx_personality_v0 {
entry:
  %__lock.i.i.i = alloca %"struct.std::_Sp_locker", align 1
  %sp = alloca %"class.std::shared_ptr", align 8
  %_data = getelementptr inbounds i8, ptr %this, i64 8
  %0 = load ptr, ptr %_data, align 8
  tail call void @llvm.experimental.noalias.scope.decl(metadata !31)
  tail call void @llvm.experimental.noalias.scope.decl(metadata !34)
  tail call void @llvm.experimental.noalias.scope.decl(metadata !37)
  call void @llvm.lifetime.start.p0(i64 2, ptr nonnull %__lock.i.i.i), !noalias !40
  call void @_ZNSt10_Sp_lockerC1EPKv(ptr noundef nonnull align 1 dereferenceable(2) %__lock.i.i.i, ptr noundef nonnull %0) #23, !noalias !41
  %1 = load ptr, ptr %0, align 8, !noalias !41
  store ptr %1, ptr %sp, align 8, !alias.scope !41
  %_M_refcount.i.i.i.i.i = getelementptr inbounds i8, ptr %sp, i64 8
  %_M_refcount3.i.i.i.i.i = getelementptr inbounds i8, ptr %0, i64 8
  %2 = load ptr, ptr %_M_refcount3.i.i.i.i.i, align 8, !noalias !41
  store ptr %2, ptr %_M_refcount.i.i.i.i.i, align 8, !alias.scope !41
  %cmp.not.i.i.i.i.i.i = icmp eq ptr %2, null
  br i1 %cmp.not.i.i.i.i.i.i, label %_ZNK13IlmThread_3_210ThreadPool4Data11getProviderEv.exit, label %if.then.i.i.i.i.i.i

if.then.i.i.i.i.i.i:                              ; preds = %entry
  %_M_use_count.i.i.i.i.i.i.i = getelementptr inbounds i8, ptr %2, i64 8
  %3 = load i8, ptr @__libc_single_threaded, align 1, !noalias !41
  %tobool.i.not.i.i.i.i.i.i.i = icmp eq i8 %3, 0
  br i1 %tobool.i.not.i.i.i.i.i.i.i, label %if.else.i.i.i.i.i.i.i.i, label %if.then.i.i.i.i.i.i.i.i

if.then.i.i.i.i.i.i.i.i:                          ; preds = %if.then.i.i.i.i.i.i
  %4 = load i32, ptr %_M_use_count.i.i.i.i.i.i.i, align 4, !noalias !41
  %add.i.i.i.i.i.i.i.i = add nsw i32 %4, 1
  store i32 %add.i.i.i.i.i.i.i.i, ptr %_M_use_count.i.i.i.i.i.i.i, align 4, !noalias !41
  br label %_ZNK13IlmThread_3_210ThreadPool4Data11getProviderEv.exit

if.else.i.i.i.i.i.i.i.i:                          ; preds = %if.then.i.i.i.i.i.i
  %5 = atomicrmw volatile add ptr %_M_use_count.i.i.i.i.i.i.i, i32 1 acq_rel, align 4, !noalias !41
  %.pre = load ptr, ptr %sp, align 8
  br label %_ZNK13IlmThread_3_210ThreadPool4Data11getProviderEv.exit

_ZNK13IlmThread_3_210ThreadPool4Data11getProviderEv.exit: ; preds = %entry, %if.then.i.i.i.i.i.i.i.i, %if.else.i.i.i.i.i.i.i.i
  %6 = phi ptr [ %1, %entry ], [ %1, %if.then.i.i.i.i.i.i.i.i ], [ %.pre, %if.else.i.i.i.i.i.i.i.i ]
  call void @_ZNSt10_Sp_lockerD1Ev(ptr noundef nonnull align 1 dereferenceable(2) %__lock.i.i.i) #23, !noalias !41
  call void @llvm.lifetime.end.p0(i64 2, ptr nonnull %__lock.i.i.i), !noalias !40
  %cmp.i.not = icmp eq ptr %6, null
  br i1 %cmp.i.not, label %cond.end, label %cond.true

cond.true:                                        ; preds = %_ZNK13IlmThread_3_210ThreadPool4Data11getProviderEv.exit
  %vtable = load ptr, ptr %6, align 8
  %vfn = getelementptr inbounds i8, ptr %vtable, i64 16
  %7 = load ptr, ptr %vfn, align 8
  %call3 = invoke noundef i32 %7(ptr noundef nonnull align 8 dereferenceable(8) %6)
          to label %cond.end unwind label %lpad

cond.end:                                         ; preds = %_ZNK13IlmThread_3_210ThreadPool4Data11getProviderEv.exit, %cond.true
  %cond = phi i32 [ %call3, %cond.true ], [ 0, %_ZNK13IlmThread_3_210ThreadPool4Data11getProviderEv.exit ]
  %8 = load ptr, ptr %_M_refcount.i.i.i.i.i, align 8
  %cmp.not.i.i.i = icmp eq ptr %8, null
  br i1 %cmp.not.i.i.i, label %_ZNSt10shared_ptrIN13IlmThread_3_218ThreadPoolProviderEED2Ev.exit, label %if.then.i.i.i

if.then.i.i.i:                                    ; preds = %cond.end
  %_M_use_count.i.i.i.i = getelementptr inbounds i8, ptr %8, i64 8
  %9 = load atomic i64, ptr %_M_use_count.i.i.i.i acquire, align 8
  %cmp.i.i.i.i = icmp eq i64 %9, 4294967297
  %10 = trunc i64 %9 to i32
  br i1 %cmp.i.i.i.i, label %if.then.i.i.i.i, label %if.end.i.i.i.i

if.then.i.i.i.i:                                  ; preds = %if.then.i.i.i
  store i32 0, ptr %_M_use_count.i.i.i.i, align 8
  %_M_weak_count.i.i.i.i = getelementptr inbounds i8, ptr %8, i64 12
  store i32 0, ptr %_M_weak_count.i.i.i.i, align 4
  %vtable.i.i.i.i = load ptr, ptr %8, align 8
  %vfn.i.i.i.i = getelementptr inbounds i8, ptr %vtable.i.i.i.i, i64 16
  %11 = load ptr, ptr %vfn.i.i.i.i, align 8
  call void %11(ptr noundef nonnull align 8 dereferenceable(16) %8) #23
  br label %if.end8.sink.split.i.i.i.i

if.end.i.i.i.i:                                   ; preds = %if.then.i.i.i
  %12 = load i8, ptr @__libc_single_threaded, align 1
  %tobool.i.i.not.i.i.i.i = icmp eq i8 %12, 0
  br i1 %tobool.i.i.not.i.i.i.i, label %if.else.i.i.i.i.i, label %if.then.i.i.i.i.i

if.then.i.i.i.i.i:                                ; preds = %if.end.i.i.i.i
  %add.i.i.i.i.i = add nsw i32 %10, -1
  store i32 %add.i.i.i.i.i, ptr %_M_use_count.i.i.i.i, align 4
  br label %_ZN9__gnu_cxx27__exchange_and_add_dispatchEPii.exit.i.i.i.i

if.else.i.i.i.i.i:                                ; preds = %if.end.i.i.i.i
  %13 = atomicrmw volatile add ptr %_M_use_count.i.i.i.i, i32 -1 acq_rel, align 4
  br label %_ZN9__gnu_cxx27__exchange_and_add_dispatchEPii.exit.i.i.i.i

_ZN9__gnu_cxx27__exchange_and_add_dispatchEPii.exit.i.i.i.i: ; preds = %if.else.i.i.i.i.i, %if.then.i.i.i.i.i
  %retval.i.0.i.i.i.i = phi i32 [ %10, %if.then.i.i.i.i.i ], [ %13, %if.else.i.i.i.i.i ]
  %cmp6.i.i.i.i = icmp eq i32 %retval.i.0.i.i.i.i, 1
  br i1 %cmp6.i.i.i.i, label %if.then7.i.i.i.i, label %_ZNSt10shared_ptrIN13IlmThread_3_218ThreadPoolProviderEED2Ev.exit

if.then7.i.i.i.i:                                 ; preds = %_ZN9__gnu_cxx27__exchange_and_add_dispatchEPii.exit.i.i.i.i
  %vtable.i.i.i.i.i.i = load ptr, ptr %8, align 8
  %vfn.i.i.i.i.i.i = getelementptr inbounds i8, ptr %vtable.i.i.i.i.i.i, i64 16
  %14 = load ptr, ptr %vfn.i.i.i.i.i.i, align 8
  call void %14(ptr noundef nonnull align 8 dereferenceable(16) %8) #23
  %_M_weak_count.i.i.i.i.i.i = getelementptr inbounds i8, ptr %8, i64 12
  %15 = load i8, ptr @__libc_single_threaded, align 1
  %tobool.i.i.not.i.i.i.i.i.i = icmp eq i8 %15, 0
  br i1 %tobool.i.i.not.i.i.i.i.i.i, label %if.else.i.i.i.i.i.i.i, label %if.then.i.i.i.i.i.i.i

if.then.i.i.i.i.i.i.i:                            ; preds = %if.then7.i.i.i.i
  %16 = load i32, ptr %_M_weak_count.i.i.i.i.i.i, align 4
  %add.i.i.i.i.i.i.i = add nsw i32 %16, -1
  store i32 %add.i.i.i.i.i.i.i, ptr %_M_weak_count.i.i.i.i.i.i, align 4
  br label %_ZN9__gnu_cxx27__exchange_and_add_dispatchEPii.exit.i.i.i.i.i.i

if.else.i.i.i.i.i.i.i:                            ; preds = %if.then7.i.i.i.i
  %17 = atomicrmw volatile add ptr %_M_weak_count.i.i.i.i.i.i, i32 -1 acq_rel, align 4
  br label %_ZN9__gnu_cxx27__exchange_and_add_dispatchEPii.exit.i.i.i.i.i.i

_ZN9__gnu_cxx27__exchange_and_add_dispatchEPii.exit.i.i.i.i.i.i: ; preds = %if.else.i.i.i.i.i.i.i, %if.then.i.i.i.i.i.i.i
  %retval.i.0.i.i.i.i.i.i = phi i32 [ %16, %if.then.i.i.i.i.i.i.i ], [ %17, %if.else.i.i.i.i.i.i.i ]
  %cmp.i.i.i.i.i.i = icmp eq i32 %retval.i.0.i.i.i.i.i.i, 1
  br i1 %cmp.i.i.i.i.i.i, label %if.end8.sink.split.i.i.i.i, label %_ZNSt10shared_ptrIN13IlmThread_3_218ThreadPoolProviderEED2Ev.exit

if.end8.sink.split.i.i.i.i:                       ; preds = %_ZN9__gnu_cxx27__exchange_and_add_dispatchEPii.exit.i.i.i.i.i.i, %if.then.i.i.i.i
  %vtable2.i.i.i.i.i.i = load ptr, ptr %8, align 8
  %vfn3.i.i.i.i.i.i = getelementptr inbounds i8, ptr %vtable2.i.i.i.i.i.i, i64 24
  %18 = load ptr, ptr %vfn3.i.i.i.i.i.i, align 8
  call void %18(ptr noundef nonnull align 8 dereferenceable(16) %8) #23
  br label %_ZNSt10shared_ptrIN13IlmThread_3_218ThreadPoolProviderEED2Ev.exit

_ZNSt10shared_ptrIN13IlmThread_3_218ThreadPoolProviderEED2Ev.exit: ; preds = %cond.end, %_ZN9__gnu_cxx27__exchange_and_add_dispatchEPii.exit.i.i.i.i, %_ZN9__gnu_cxx27__exchange_and_add_dispatchEPii.exit.i.i.i.i.i.i, %if.end8.sink.split.i.i.i.i
  ret i32 %cond

lpad:                                             ; preds = %cond.true
  %19 = landingpad { ptr, i32 }
          cleanup
  call void @_ZNSt10shared_ptrIN13IlmThread_3_218ThreadPoolProviderEED2Ev(ptr noundef nonnull align 8 dereferenceable(16) %sp) #23
  resume { ptr, i32 } %19
}